; Function Attrs: mustprogress nounwind uwtable
define hidden noundef i32 @_ZN14WriteableFlags8set_flagEPKcPKvPFN7JVMFlag5ErrorEPS4_S3_13JVMFlagOriginR12FormatBufferILm80EEES7_SA_(ptr noundef %0, ptr noundef %1, ptr nocapture noundef readonly %2, i32 noundef %3, ptr noundef nonnull align 8 dereferenceable(88) %4) local_unnamed_addr #0 align 2 {
  %6 = icmp eq ptr %0, null
  br i1 %6, label %7, label %8

7:                                                ; preds = %5
  tail call void (ptr, ptr, ...) @_ZN12FormatBufferILm80EE5printEPKcz(ptr noundef nonnull align 8 dereferenceable(88) %4, ptr noundef nonnull @.str.15)
  br label %22

8:                                                ; preds = %5
  %9 = icmp eq ptr %1, null
  br i1 %9, label %10, label %11

10:                                               ; preds = %8
  tail call void (ptr, ptr, ...) @_ZN12FormatBufferILm80EE5printEPKcz(ptr noundef nonnull align 8 dereferenceable(88) %4, ptr noundef nonnull @.str.16)
  br label %22

11:                                               ; preds = %8
  %12 = tail call i64 @strlen(ptr noundef nonnull dereferenceable(1) %0) #12
  %13 = tail call noundef ptr @_ZN7JVMFlag9find_flagEPKcmbb(ptr noundef nonnull %0, i64 noundef %12, i1 noundef zeroext false, i1 noundef zeroext false) #13
  %.not = icmp eq ptr %13, null
  br i1 %.not, label %21, label %14

14:                                               ; preds = %11
  %15 = getelementptr inbounds i8, ptr %13, i64 16
  %16 = load i32, ptr %15, align 8
  %17 = and i32 %16, 32
  %.not18 = icmp eq i32 %17, 0
  br i1 %.not18, label %20, label %18

18:                                               ; preds = %14
  %19 = tail call noundef i32 %2(ptr noundef nonnull %13, ptr noundef nonnull %1, i32 noundef %3, ptr noundef nonnull align 8 dereferenceable(88) %4) #13
  br label %22

20:                                               ; preds = %14
  tail call void (ptr, ptr, ...) @_ZN12FormatBufferILm80EE5printEPKcz(ptr noundef nonnull align 8 dereferenceable(88) %4, ptr noundef nonnull @.str.17)
  br label %22

21:                                               ; preds = %11
  tail call void (ptr, ptr, ...) @_ZN12FormatBufferILm80EE5printEPKcz(ptr noundef nonnull align 8 dereferenceable(88) %4, ptr noundef nonnull @.str.18, ptr noundef nonnull %0)
  br label %22

22:                                               ; preds = %21, %20, %18, %10, %7
  %.0 = phi i32 [ 1, %7 ], [ 2, %10 ], [ %19, %18 ], [ 4, %20 ], [ 7, %21 ]
  ret i32 %.0
}